target datalayout = "e-m:e-p270:32:32-p271:32:32-p272:64:64-i64:64-i128:128-f80:128-n8:16:32:64-S128"
target triple = "x86_64-pc-linux-gnu"

@.str.47 = private unnamed_addr constant [23 x i8] c"!#$%&()*+:;<>?@[]^{|}~\00", align 1

; Function Attrs: nounwind uwtable
define dso_local i32 @isValidAuxChar(i32 noundef %0) #0 {
  %2 = alloca i32, align 4
  store i32 %0, ptr %2, align 4, !tbaa !10
  %3 = call ptr @__ctype_b_loc() #19
  %4 = load ptr, ptr %3, align 8, !tbaa !50
  %5 = load i32, ptr %2, align 4, !tbaa !10
  %6 = sext i32 %5 to i64
  %7 = getelementptr inbounds i16, ptr %4, i64 %6
  %8 = load i16, ptr %7, align 2, !tbaa !48
  %9 = zext i16 %8 to i32
  %10 = and i32 %9, 8
  %11 = icmp ne i32 %10, 0
  br i1 %11, label %16, label %12

12:                                               ; preds = %1
  %13 = load i32, ptr %2, align 4, !tbaa !10
  %14 = call ptr @strchr(ptr noundef @.str.47, i32 noundef %13) #16
  %15 = icmp eq ptr %14, null
  br label %16

16:                                               ; preds = %12, %1
  %17 = phi i1 [ true, %1 ], [ %15, %12 ]
  %18 = zext i1 %17 to i32
  ret i32 %18
}

; Function Attrs: nounwind uwtable
define dso_local i32 @isValidAuxString(ptr noundef %0, i32 noundef %1) #0 {
  %3 = alloca i32, align 4
  %4 = alloca ptr, align 8
  %5 = alloca i32, align 4
  %6 = alloca i32, align 4
  %7 = alloca i32, align 4
  store ptr %0, ptr %4, align 8, !tbaa !5
  store i32 %1, ptr %5, align 4, !tbaa !10
  call void @llvm.lifetime.start.p0(i64 4, ptr %6) #14
  store i32 0, ptr %6, align 4, !tbaa !10
  br label %8

8:                                                ; preds = %24, %2
  %9 = load i32, ptr %6, align 4, !tbaa !10
  %10 = load i32, ptr %5, align 4, !tbaa !10
  %11 = icmp ult i32 %9, %10
  br i1 %11, label %13, label %12

12:                                               ; preds = %8
  store i32 2, ptr %7, align 4
  br label %27

13:                                               ; preds = %8
  %14 = load ptr, ptr %4, align 8, !tbaa !5
  %15 = load i32, ptr %6, align 4, !tbaa !10
  %16 = zext i32 %15 to i64
  %17 = getelementptr inbounds nuw i8, ptr %14, i64 %16
  %18 = load i8, ptr %17, align 1, !tbaa !12
  %19 = sext i8 %18 to i32
  %20 = call i32 @isValidAuxChar(i32 noundef %19)
  %21 = icmp ne i32 %20, 0
  br i1 %21, label %23, label %22

22:                                               ; preds = %13
  store i32 0, ptr %3, align 4
  store i32 1, ptr %7, align 4
  br label %27

23:                                               ; preds = %13
  br label %24

24:                                               ; preds = %23
  %25 = load i32, ptr %6, align 4, !tbaa !10
  %26 = add i32 %25, 1
  store i32 %26, ptr %6, align 4, !tbaa !10
  br label %8, !llvm.loop !113

27:                                               ; preds = %22, %12
  call void @llvm.lifetime.end.p0(i64 4, ptr %6) #14
  %28 = load i32, ptr %7, align 4
  switch i32 %28, label %32 [
    i32 2, label %29
    i32 1, label %30
  ]

29:                                               ; preds = %27
  store i32 1, ptr %3, align 4
  br label %30

30:                                               ; preds = %29, %27
  %31 = load i32, ptr %3, align 4
  ret i32 %31

32:                                               ; preds = %27
  unreachable
}