; Function Attrs: nofree nounwind memory(read, inaccessiblemem: none) uwtable
define dso_local range(i32 0, 2) i32 @isValidAuxString(ptr noundef readonly captures(none) %0, i32 noundef %1) local_unnamed_addr #10 {
  %.not910 = icmp eq i32 %1, 0
  br i1 %.not910, label %isValidAuxChar.exit._crit_edge, label %.lr.ph

.lr.ph:                                           ; preds = %2
  %3 = tail call ptr @__ctype_b_loc() #21
  %4 = load ptr, ptr %3, align 8, !tbaa !97
  %wide.trip.count = zext i32 %1 to i64
  br label %5

5:                                                ; preds = %.lr.ph, %isValidAuxChar.exit.thread
  %indvars.iv = phi i64 [ 0, %.lr.ph ], [ %indvars.iv.next, %isValidAuxChar.exit.thread ]
  %6 = getelementptr inbounds nuw i8, ptr %0, i64 %indvars.iv
  %7 = load i8, ptr %6, align 1, !tbaa !5
  %8 = sext i8 %7 to i64
  %9 = getelementptr inbounds i16, ptr %4, i64 %8
  %10 = load i16, ptr %9, align 2, !tbaa !42
  %11 = and i16 %10, 8
  %.not.i = icmp eq i16 %11, 0
  br i1 %.not.i, label %isValidAuxChar.exit, label %isValidAuxChar.exit.thread

isValidAuxChar.exit:                              ; preds = %5
  %12 = sext i8 %7 to i32
  %memchr.i = tail call ptr @memchr(ptr noundef nonnull dereferenceable(1) @.str.47, i32 %12, i64 23)
  %.not = icmp eq ptr %memchr.i, null
  br i1 %.not, label %isValidAuxChar.exit.thread, label %isValidAuxChar.exit._crit_edge

isValidAuxChar.exit.thread:                       ; preds = %5, %isValidAuxChar.exit
  %indvars.iv.next = add nuw nsw i64 %indvars.iv, 1
  %exitcond.not = icmp eq i64 %indvars.iv.next, %wide.trip.count
  br i1 %exitcond.not, label %isValidAuxChar.exit._crit_edge, label %5, !llvm.loop !99

isValidAuxChar.exit._crit_edge:                   ; preds = %isValidAuxChar.exit.thread, %isValidAuxChar.exit, %2
  %.not9.lcssa = phi i32 [ 1, %2 ], [ 0, %isValidAuxChar.exit ], [ 1, %isValidAuxChar.exit.thread ]
  ret i32 %.not9.lcssa
}